(dp1
S'session'
p2
(dp3
S'picture'
p4
Vhttps://lh6.googleusercontent.com/-h9f0RXMCyEk/AAAAAAAAAAI/AAAAAAAAACY/AswK9Ykpc6s/photo.jpg
p5
sS'_accessed_time'
p6
F1512166068.2624519
sS'email'
p7
Vboqianfan@gmail.com
p8
sS'_creation_time'
p9
F1512165769.214622
sS'name'
p10
V
ss.